; Function Attrs: mustprogress nounwind uwtable
define void @_ZN5osgeo4proj3crs13ParametricCRSD2Ev(ptr nocapture noundef nonnull align 8 dereferenceable(16) %0, ptr nocapture noundef readonly %1) unnamed_addr #3 align 2 personality ptr @__gxx_personality_v0 {
  %3 = load ptr, ptr %1, align 8
  store ptr %3, ptr %0, align 8
  %4 = getelementptr inbounds i8, ptr %1, i64 8
  %5 = load ptr, ptr %4, align 8
  %6 = getelementptr i8, ptr %3, i64 -24
  %7 = load i64, ptr %6, align 8
  %8 = getelementptr inbounds i8, ptr %0, i64 %7
  store ptr %5, ptr %8, align 8
  %9 = getelementptr inbounds i8, ptr %1, i64 16
  %10 = load ptr, ptr %9, align 8
  %11 = load ptr, ptr %0, align 8
  %12 = getelementptr i8, ptr %11, i64 -24
  %13 = load i64, ptr %12, align 8
  %14 = getelementptr i8, ptr %0, i64 %13
  %15 = getelementptr i8, ptr %14, i64 16
  store ptr %10, ptr %15, align 8
  %16 = getelementptr inbounds i8, ptr %1, i64 24
  %17 = load ptr, ptr %16, align 8
  %18 = load ptr, ptr %0, align 8
  %19 = getelementptr i8, ptr %18, i64 -24
  %20 = load i64, ptr %19, align 8
  %21 = getelementptr i8, ptr %0, i64 %20
  %22 = getelementptr i8, ptr %21, i64 24
  store ptr %17, ptr %22, align 8
  %23 = getelementptr inbounds i8, ptr %1, i64 32
  %24 = load ptr, ptr %23, align 8
  %25 = load ptr, ptr %0, align 8
  %26 = getelementptr i8, ptr %25, i64 -24
  %27 = load i64, ptr %26, align 8
  %28 = getelementptr i8, ptr %0, i64 %27
  %29 = getelementptr i8, ptr %28, i64 48
  store ptr %24, ptr %29, align 8
  %30 = getelementptr inbounds i8, ptr %0, i64 8
  %31 = load ptr, ptr %30, align 8
  %.not.i = icmp eq ptr %31, null
  br i1 %.not.i, label %_ZNSt10unique_ptrIN5osgeo4proj3crs13ParametricCRS7PrivateESt14default_deleteIS4_EED2Ev.exit, label %_ZNKSt14default_deleteIN5osgeo4proj3crs13ParametricCRS7PrivateEEclEPS4_.exit.i

_ZNKSt14default_deleteIN5osgeo4proj3crs13ParametricCRS7PrivateEEclEPS4_.exit.i: ; preds = %2
  tail call void @_ZdlPv(ptr noundef nonnull %31) #36
  br label %_ZNSt10unique_ptrIN5osgeo4proj3crs13ParametricCRS7PrivateESt14default_deleteIS4_EED2Ev.exit

_ZNSt10unique_ptrIN5osgeo4proj3crs13ParametricCRS7PrivateESt14default_deleteIS4_EED2Ev.exit: ; preds = %2, %_ZNKSt14default_deleteIN5osgeo4proj3crs13ParametricCRS7PrivateEEclEPS4_.exit.i
  store ptr null, ptr %30, align 8
  ret void
}